target datalayout = "e-m:e-p270:32:32-p271:32:32-p272:64:64-i64:64-i128:128-f80:128-n8:16:32:64-S128"
target triple = "x86_64-pc-linux-gnu"

%struct._header_field_info = type { ptr, ptr, i32, i32, ptr, i64, ptr, i32, i32, i32, i32, ptr }
%struct._rpc_prog_info_value = type { ptr, i32, i32, ptr, ptr }
%struct._GArray = type { ptr, i32 }
%struct._srt_stat_table = type { ptr, ptr, ptr, i32, ptr, ptr, ptr }
%struct.rpcstat_tap_data = type { ptr, i32, i32, i32 }

@rpc_progs = global ptr null, align 8
@.str.31 = private unnamed_addr constant [29 x i8] c"epan/dissectors/packet-rpc.c\00", align 1
@rpcstat_init.table_name = internal global [100 x i8] zeroinitializer, align 16
@.str.348 = private unnamed_addr constant [29 x i8] c"%s:%u: failed assertion \22%s\22\00", align 1
@.str.349 = private unnamed_addr constant [9 x i8] c"tap_data\00", align 1
@.str.350 = private unnamed_addr constant [14 x i8] c"%s Version %u\00", align 1

; Function Attrs: null_pointer_is_valid sspstrong uwtable
define i32 @rpc_prog_hf(i32 noundef %0, i32 noundef %1) #0 {
  %3 = alloca i32, align 4
  %4 = alloca i32, align 4
  %5 = alloca i32, align 4
  %6 = alloca ptr, align 8
  %7 = alloca i32, align 4
  store i32 %0, ptr %4, align 4
  store i32 %1, ptr %5, align 4
  call void @llvm.lifetime.start.p0(i64 8, ptr %6) #18
  %8 = load ptr, ptr @rpc_progs, align 8
  %9 = load i32, ptr %4, align 4
  %10 = zext i32 %9 to i64
  %11 = inttoptr i64 %10 to ptr
  %12 = call ptr @g_hash_table_lookup(ptr noundef %8, ptr noundef %11)
  store ptr %12, ptr %6, align 8
  %13 = icmp ne ptr %12, null
  br i1 %13, label %14, label %24

14:                                               ; preds = %2
  %15 = load ptr, ptr %6, align 8
  %16 = getelementptr inbounds nuw %struct._rpc_prog_info_value, ptr %15, i32 0, i32 4
  %17 = load ptr, ptr %16, align 8
  %18 = getelementptr inbounds nuw %struct._GArray, ptr %17, i32 0, i32 0
  %19 = load ptr, ptr %18, align 8
  %20 = load i32, ptr %5, align 4
  %21 = zext i32 %20 to i64
  %22 = getelementptr i32, ptr %19, i64 %21
  %23 = load i32, ptr %22, align 4
  store i32 %23, ptr %3, align 4
  store i32 1, ptr %7, align 4
  br label %25

24:                                               ; preds = %2
  store i32 -1, ptr %3, align 4
  store i32 1, ptr %7, align 4
  br label %25

25:                                               ; preds = %24, %14
  call void @llvm.lifetime.end.p0(i64 8, ptr %6) #18
  %26 = load i32, ptr %3, align 4
  ret i32 %26
}

; Function Attrs: null_pointer_is_valid sspstrong uwtable
define internal void @rpcstat_init(ptr noundef %0, ptr noundef %1) #0 {
  %3 = alloca ptr, align 8
  %4 = alloca ptr, align 8
  %5 = alloca ptr, align 8
  %6 = alloca ptr, align 8
  %7 = alloca i32, align 4
  %8 = alloca i32, align 4
  %9 = alloca ptr, align 8
  %10 = alloca ptr, align 8
  store ptr %0, ptr %3, align 8
  store ptr %1, ptr %4, align 8
  call void @llvm.lifetime.start.p0(i64 8, ptr %5) #18
  %11 = load ptr, ptr %3, align 8
  %12 = call ptr @get_srt_table_param_data(ptr noundef %11)
  store ptr %12, ptr %5, align 8
  call void @llvm.lifetime.start.p0(i64 8, ptr %6) #18
  call void @llvm.lifetime.start.p0(i64 4, ptr %7) #18
  call void @llvm.lifetime.start.p0(i64 4, ptr %8) #18
  call void @llvm.lifetime.start.p0(i64 8, ptr %9) #18
  %13 = load ptr, ptr %5, align 8
  %14 = icmp ne ptr %13, null
  br i1 %14, label %15, label %16

15:                                               ; preds = %2
  br label %18

16:                                               ; preds = %2
  call void (ptr, ...) @proto_report_dissector_bug(ptr noundef @.str.348, ptr noundef @.str.31, i32 noundef 361, ptr noundef @.str.349) #21
  unreachable

17:                                               ; No predecessors!
  br label %18

18:                                               ; preds = %17, %15
  %19 = load ptr, ptr %5, align 8
  %20 = getelementptr inbounds nuw %struct.rpcstat_tap_data, ptr %19, i32 0, i32 1
  %21 = load i32, ptr %20, align 8
  %22 = load ptr, ptr %5, align 8
  %23 = getelementptr inbounds nuw %struct.rpcstat_tap_data, ptr %22, i32 0, i32 2
  %24 = load i32, ptr %23, align 4
  %25 = call i32 @rpc_prog_hf(i32 noundef %21, i32 noundef %24)
  store i32 %25, ptr %8, align 4
  %26 = load i32, ptr %8, align 4
  %27 = call ptr @proto_registrar_get_nth(i32 noundef %26)
  store ptr %27, ptr %9, align 8
  %28 = load ptr, ptr %5, align 8
  %29 = getelementptr inbounds nuw %struct.rpcstat_tap_data, ptr %28, i32 0, i32 0
  %30 = load ptr, ptr %29, align 8
  %31 = load ptr, ptr %5, align 8
  %32 = getelementptr inbounds nuw %struct.rpcstat_tap_data, ptr %31, i32 0, i32 2
  %33 = load i32, ptr %32, align 4
  %34 = call i32 (ptr, i64, i32, i64, ptr, ...) @__snprintf_chk(ptr noundef @rpcstat_init.table_name, i64 noundef 100, i32 noundef 2, i64 noundef 100, ptr noundef @.str.350, ptr noundef %30, i32 noundef %33)
  %35 = load ptr, ptr %4, align 8
  %36 = load ptr, ptr %5, align 8
  %37 = getelementptr inbounds nuw %struct.rpcstat_tap_data, ptr %36, i32 0, i32 3
  %38 = load i32, ptr %37, align 8
  %39 = load ptr, ptr %9, align 8
  %40 = getelementptr inbounds nuw %struct._header_field_info, ptr %39, i32 0, i32 1
  %41 = load ptr, ptr %40, align 8
  %42 = load ptr, ptr %5, align 8
  %43 = call ptr @init_srt_table(ptr noundef @rpcstat_init.table_name, ptr noundef null, ptr noundef %35, i32 noundef %38, ptr noundef null, ptr noundef %41, ptr noundef %42)
  store ptr %43, ptr %6, align 8
  store i32 0, ptr %7, align 4
  br label %44

44:                                               ; preds = %63, %18
  %45 = load i32, ptr %7, align 4
  %46 = load ptr, ptr %6, align 8
  %47 = getelementptr inbounds nuw %struct._srt_stat_table, ptr %46, i32 0, i32 3
  %48 = load i32, ptr %47, align 8
  %49 = icmp slt i32 %45, %48
  br i1 %49, label %50, label %66

50:                                               ; preds = %44
  call void @llvm.lifetime.start.p0(i64 8, ptr %10) #18
  %51 = load ptr, ptr %5, align 8
  %52 = getelementptr inbounds nuw %struct.rpcstat_tap_data, ptr %51, i32 0, i32 1
  %53 = load i32, ptr %52, align 8
  %54 = load ptr, ptr %5, align 8
  %55 = getelementptr inbounds nuw %struct.rpcstat_tap_data, ptr %54, i32 0, i32 2
  %56 = load i32, ptr %55, align 4
  %57 = load i32, ptr %7, align 4
  %58 = call ptr @rpc_proc_name(ptr noundef null, i32 noundef %53, i32 noundef %56, i32 noundef %57)
  store ptr %58, ptr %10, align 8
  %59 = load ptr, ptr %6, align 8
  %60 = load i32, ptr %7, align 4
  %61 = load ptr, ptr %10, align 8
  call void @init_srt_table_row(ptr noundef %59, i32 noundef %60, ptr noundef %61)
  %62 = load ptr, ptr %10, align 8
  call void @wmem_free(ptr noundef null, ptr noundef %62)
  call void @llvm.lifetime.end.p0(i64 8, ptr %10) #18
  br label %63

63:                                               ; preds = %50
  %64 = load i32, ptr %7, align 4
  %65 = add i32 %64, 1
  store i32 %65, ptr %7, align 4
  br label %44, !llvm.loop !14

66:                                               ; preds = %44
  call void @llvm.lifetime.end.p0(i64 8, ptr %9) #18
  call void @llvm.lifetime.end.p0(i64 4, ptr %8) #18
  call void @llvm.lifetime.end.p0(i64 4, ptr %7) #18
  call void @llvm.lifetime.end.p0(i64 8, ptr %6) #18
  call void @llvm.lifetime.end.p0(i64 8, ptr %5) #18
  ret void
}