; Function Attrs: null_pointer_is_valid sspstrong uwtable
define internal void @rpcstat_init(ptr noundef %0, ptr noundef %1) #0 {
  %3 = tail call ptr @get_srt_table_param_data(ptr noundef %0)
  %.not = icmp eq ptr %3, null
  br i1 %.not, label %4, label %5

4:                                                ; preds = %2
  tail call void (ptr, ...) @proto_report_dissector_bug(ptr noundef nonnull @.str.348, ptr noundef nonnull @.str.31, i32 noundef 361, ptr noundef nonnull @.str.349) #19
  unreachable

5:                                                ; preds = %2
  %6 = getelementptr inbounds nuw i8, ptr %3, i64 8
  %7 = load i32, ptr %6, align 8
  %8 = getelementptr inbounds nuw i8, ptr %3, i64 12
  %9 = load i32, ptr %8, align 4
  %10 = load ptr, ptr @rpc_progs, align 8
  %11 = zext i32 %7 to i64
  %12 = inttoptr i64 %11 to ptr
  %13 = tail call ptr @g_hash_table_lookup(ptr noundef %10, ptr noundef %12)
  %.not.i = icmp eq ptr %13, null
  br i1 %.not.i, label %rpc_prog_hf.exit, label %14

14:                                               ; preds = %5
  %15 = getelementptr inbounds nuw i8, ptr %13, i64 24
  %16 = load ptr, ptr %15, align 8
  %17 = load ptr, ptr %16, align 8
  %18 = zext i32 %9 to i64
  %19 = getelementptr i32, ptr %17, i64 %18
  %20 = load i32, ptr %19, align 4
  br label %rpc_prog_hf.exit

rpc_prog_hf.exit:                                 ; preds = %5, %14
  %.0.i = phi i32 [ %20, %14 ], [ -1, %5 ]
  %21 = tail call ptr @proto_registrar_get_nth(i32 noundef %.0.i)
  %22 = load ptr, ptr %3, align 8
  %23 = load i32, ptr %8, align 4
  %24 = tail call i32 (ptr, i64, i32, i64, ptr, ...) @__snprintf_chk(ptr noundef nonnull @rpcstat_init.table_name, i64 noundef 100, i32 noundef 2, i64 noundef 100, ptr noundef nonnull @.str.350, ptr noundef %22, i32 noundef %23)
  %25 = getelementptr inbounds nuw i8, ptr %3, i64 16
  %26 = load i32, ptr %25, align 8
  %27 = getelementptr inbounds nuw i8, ptr %21, i64 8
  %28 = load ptr, ptr %27, align 8
  %29 = tail call ptr @init_srt_table(ptr noundef nonnull @rpcstat_init.table_name, ptr noundef null, ptr noundef %1, i32 noundef %26, ptr noundef null, ptr noundef %28, ptr noundef nonnull %3)
  %30 = getelementptr inbounds nuw i8, ptr %29, i64 24
  %31 = load i32, ptr %30, align 8
  %32 = icmp sgt i32 %31, 0
  br i1 %32, label %.lr.ph, label %._crit_edge

.lr.ph:                                           ; preds = %rpc_prog_hf.exit, %.lr.ph
  %.021 = phi i32 [ %36, %.lr.ph ], [ 0, %rpc_prog_hf.exit ]
  %33 = load i32, ptr %6, align 8
  %34 = load i32, ptr %8, align 4
  %35 = tail call ptr @rpc_proc_name(ptr noundef null, i32 noundef %33, i32 noundef %34, i32 noundef %.021)
  tail call void @init_srt_table_row(ptr noundef %29, i32 noundef %.021, ptr noundef %35)
  tail call void @wmem_free(ptr noundef null, ptr noundef %35)
  %36 = add nuw nsw i32 %.021, 1
  %37 = load i32, ptr %30, align 8
  %38 = icmp slt i32 %36, %37
  br i1 %38, label %.lr.ph, label %._crit_edge, !llvm.loop !14

._crit_edge:                                      ; preds = %.lr.ph, %rpc_prog_hf.exit
  ret void
}